target datalayout = "e-m:e-p270:32:32-p271:32:32-p272:64:64-i64:64-i128:128-f80:128-n8:16:32:64-S128"
target triple = "x86_64-unknown-linux-gnu"

%"class.std::__cxx11::basic_string" = type { %"struct.std::__cxx11::basic_string<char>::_Alloc_hider", i64, %union.anon }
%"struct.std::__cxx11::basic_string<char>::_Alloc_hider" = type { ptr }
%union.anon = type { i64, [8 x i8] }
%"class.proxygen::HTTPDirectResponseHandler" = type <{ %"class.proxygen::HTTPTransactionHandler", ptr, ptr, %"class.std::__cxx11::basic_string", i32, i8, [3 x i8] }>
%"class.proxygen::HTTPTransactionHandler" = type { %"struct.proxygen::TraceEventObserver" }
%"struct.proxygen::TraceEventObserver" = type { ptr }

; Function Attrs: mustprogress nounwind uwtable
define void @_ZN8proxygen25HTTPDirectResponseHandler5onEOMEv(ptr noundef nonnull align 8 dereferenceable(61) %this) unnamed_addr #5 align 2 personality ptr @__gxx_personality_v0 {
entry:
  %this.addr = alloca ptr, align 8
  store ptr %this, ptr %this.addr, align 8
  %this1 = load ptr, ptr %this.addr, align 8
  %eomSent_ = getelementptr inbounds %"class.proxygen::HTTPDirectResponseHandler", ptr %this1, i32 0, i32 5
  %bf.load = load i8, ptr %eomSent_, align 4
  %bf.clear = and i8 %bf.load, -3
  %bf.set = or i8 %bf.clear, 2
  store i8 %bf.set, ptr %eomSent_, align 4
  %txn_ = getelementptr inbounds %"class.proxygen::HTTPDirectResponseHandler", ptr %this1, i32 0, i32 1
  %0 = load ptr, ptr %txn_, align 8
  %vtable = load ptr, ptr %0, align 8
  %vfn = getelementptr inbounds ptr, ptr %vtable, i64 18
  %1 = load ptr, ptr %vfn, align 8
  invoke void %1(ptr noundef nonnull align 8 dereferenceable(912) %0)
          to label %invoke.cont unwind label %terminate.lpad

invoke.cont:                                      ; preds = %entry
  ret void

terminate.lpad:                                   ; preds = %entry
  %2 = landingpad { ptr, i32 }
          catch ptr null
  %3 = extractvalue { ptr, i32 } %2, 0
  call void @__clang_call_terminate(ptr %3) #14
  unreachable
}