; Function Attrs: mustprogress nounwind uwtable
define void @_ZN8proxygen25HTTPDirectResponseHandler5onEOMEv(ptr nocapture noundef nonnull align 8 dereferenceable(61) %this) unnamed_addr #4 align 2 personality ptr @__gxx_personality_v0 {
entry:
  %eomSent_ = getelementptr inbounds i8, ptr %this, i64 60
  %bf.load = load i8, ptr %eomSent_, align 4
  %bf.set = or i8 %bf.load, 2
  store i8 %bf.set, ptr %eomSent_, align 4
  %txn_ = getelementptr inbounds i8, ptr %this, i64 8
  %0 = load ptr, ptr %txn_, align 8
  %vtable = load ptr, ptr %0, align 8
  %vfn = getelementptr inbounds i8, ptr %vtable, i64 144
  %1 = load ptr, ptr %vfn, align 8
  invoke void %1(ptr noundef nonnull align 8 dereferenceable(912) %0)
          to label %invoke.cont unwind label %terminate.lpad

invoke.cont:                                      ; preds = %entry
  ret void

terminate.lpad:                                   ; preds = %entry
  %2 = landingpad { ptr, i32 }
          catch ptr null
  %3 = extractvalue { ptr, i32 } %2, 0
  tail call void @__clang_call_terminate(ptr %3) #18
  unreachable
}